target datalayout = "e-m:e-p270:32:32-p271:32:32-p272:64:64-i64:64-i128:128-f80:128-n8:16:32:64-S128"
target triple = "x86_64-unknown-linux-gnu"

%"class.dpx::RunLengthEncoding" = type { %"class.dpx::Codec", ptr }
%"class.dpx::Codec" = type { ptr, ptr }

; Function Attrs: mustprogress nounwind uwtable
define hidden void @_ZN3dpx17RunLengthEncoding5ResetEv(ptr noundef nonnull align 8 dereferenceable(24) %this) unnamed_addr #1 align 2 {
entry:
  %this.addr = alloca ptr, align 8
  store ptr %this, ptr %this.addr, align 8
  %this1 = load ptr, ptr %this.addr, align 8
  %buf = getelementptr inbounds %"class.dpx::RunLengthEncoding", ptr %this1, i32 0, i32 1
  %0 = load ptr, ptr %buf, align 8
  %tobool = icmp ne ptr %0, null
  br i1 %tobool, label %if.then, label %if.end

if.then:                                          ; preds = %entry
  %buf2 = getelementptr inbounds %"class.dpx::RunLengthEncoding", ptr %this1, i32 0, i32 1
  %1 = load ptr, ptr %buf2, align 8
  %isnull = icmp eq ptr %1, null
  br i1 %isnull, label %delete.end, label %delete.notnull

delete.notnull:                                   ; preds = %if.then
  call void @_ZdaPv(ptr noundef %1) #8
  br label %delete.end

delete.end:                                       ; preds = %delete.notnull, %if.then
  %buf3 = getelementptr inbounds %"class.dpx::RunLengthEncoding", ptr %this1, i32 0, i32 1
  store ptr null, ptr %buf3, align 8
  br label %if.end

if.end:                                           ; preds = %delete.end, %entry
  ret void
}